target datalayout = "e-m:e-p270:32:32-p271:32:32-p272:64:64-i64:64-i128:128-f80:128-n8:16:32:64-S128"
target triple = "x86_64-pc-linux-gnu"

%struct.H5FL_seq_head_t = type { %struct.H5FL_blk_head_t, i64 }
%struct.H5FL_blk_head_t = type { i8, i32, i32, i64, ptr, ptr }
%struct.H5EA_hdr_t = type { %struct.H5C_cache_entry_t, %struct.H5EA_create_t, i64, %struct.H5EA_stat_t, %struct.anon.1, i64, i64, i64, ptr, i64, i8, i64, i64, i8, i64, ptr, i64, ptr, i8, ptr, ptr }
%struct.H5C_cache_entry_t = type { ptr, i64, i64, ptr, i8, ptr, i8, i8, i8, i8, i32, i8, i8, i8, i8, i8, i32, ptr, i32, i32, i32, i32, i32, i8, i8, ptr, ptr, ptr, ptr, ptr, ptr, i8, i32, i8, i64, ptr, i64, i64, i32, i8, i32, i32, i8, ptr, ptr, ptr }
%struct.H5EA_create_t = type { ptr, i8, i8, i8, i8, i8, i8 }
%struct.H5EA_stat_t = type { %struct.anon, %struct.anon.0 }
%struct.anon = type { i64, i64, i64 }
%struct.anon.0 = type { i64, i64, i64, i64, i64, i64 }
%struct.anon.1 = type { i64, ptr }
%struct.H5EA_class_t = type { i32, ptr, i64, ptr, ptr, ptr, ptr, ptr, ptr, ptr, ptr }
%struct.H5EA_sblk_info_t = type { i64, i64, i64, i64 }

@.str = private unnamed_addr constant [101 x i8] c"generated/home/dtcxzyw/WorkSpace/Projects/compilers/llvm-opt-benchmark/bench/hdf5/hdf5/src/H5EAhdr.c\00", align 1
@H5E_EARRAY_g = external global i64, align 8
@H5E_CANTALLOC_g = external global i64, align 8
@H5_H5EA_sblk_info_t_seq_free_list = internal global %struct.H5FL_seq_head_t { %struct.H5FL_blk_head_t { i8 0, i32 0, i32 0, i64 0, ptr @.str.26, ptr null }, i64 32 }, align 8
@__func__.H5EA__hdr_init = private unnamed_addr constant [15 x i8] c"H5EA__hdr_init\00", align 1
@.str.3 = private unnamed_addr constant [52 x i8] c"memory allocation failed for super block info array\00", align 1
@H5E_CANTCREATE_g = external global i64, align 8
@.str.4 = private unnamed_addr constant [58 x i8] c"unable to create extensible array client callback context\00", align 1

; Function Attrs: nounwind willreturn memory(read) uwtable
define internal i32 @H5VM_log2_of2(i32 noundef %0) #2 {
  %2 = alloca i32, align 4
  store i32 %0, ptr %2, align 4
  %3 = load i32, ptr %2, align 4
  %4 = mul i32 %3, 125613361
  %5 = lshr i32 %4, 27
  %6 = zext i32 %5 to i64
  %7 = getelementptr inbounds [32 x i32], ptr @MultiplyDeBruijnBitPosition, i64 0, i64 %6
  %8 = load i32, ptr %7, align 4
  ret i32 %8
}

; Function Attrs: nounwind uwtable
define i32 @H5EA__hdr_init(ptr noundef %0, ptr noundef %1) #0 {
  %3 = alloca ptr, align 8
  %4 = alloca ptr, align 8
  %5 = alloca i64, align 8
  %6 = alloca i64, align 8
  %7 = alloca i64, align 8
  %8 = alloca i32, align 4
  %9 = alloca i8, align 1
  store ptr %0, ptr %3, align 8
  store ptr %1, ptr %4, align 8
  store i32 0, ptr %8, align 4
  store i8 0, ptr %9, align 1
  %10 = load ptr, ptr %3, align 8
  %11 = getelementptr inbounds %struct.H5EA_hdr_t, ptr %10, i32 0, i32 1
  %12 = getelementptr inbounds %struct.H5EA_create_t, ptr %11, i32 0, i32 2
  %13 = load i8, ptr %12, align 1
  %14 = zext i8 %13 to i32
  %15 = load ptr, ptr %3, align 8
  %16 = getelementptr inbounds %struct.H5EA_hdr_t, ptr %15, i32 0, i32 1
  %17 = getelementptr inbounds %struct.H5EA_create_t, ptr %16, i32 0, i32 4
  %18 = load i8, ptr %17, align 1
  %19 = zext i8 %18 to i32
  %20 = call i32 @H5VM_log2_of2(i32 noundef %19) #5
  %21 = sub i32 %14, %20
  %22 = add i32 1, %21
  %23 = zext i32 %22 to i64
  %24 = load ptr, ptr %3, align 8
  %25 = getelementptr inbounds %struct.H5EA_hdr_t, ptr %24, i32 0, i32 14
  store i64 %23, ptr %25, align 8
  %26 = load ptr, ptr %3, align 8
  %27 = getelementptr inbounds %struct.H5EA_hdr_t, ptr %26, i32 0, i32 1
  %28 = getelementptr inbounds %struct.H5EA_create_t, ptr %27, i32 0, i32 6
  %29 = load i8, ptr %28, align 1
  %30 = zext i8 %29 to i32
  %31 = zext i32 %30 to i64
  %32 = shl i64 1, %31
  %33 = load ptr, ptr %3, align 8
  %34 = getelementptr inbounds %struct.H5EA_hdr_t, ptr %33, i32 0, i32 16
  store i64 %32, ptr %34, align 8
  %35 = load ptr, ptr %3, align 8
  %36 = getelementptr inbounds %struct.H5EA_hdr_t, ptr %35, i32 0, i32 1
  %37 = getelementptr inbounds %struct.H5EA_create_t, ptr %36, i32 0, i32 2
  %38 = load i8, ptr %37, align 1
  %39 = zext i8 %38 to i32
  %40 = add nsw i32 %39, 7
  %41 = sdiv i32 %40, 8
  %42 = trunc i32 %41 to i8
  %43 = load ptr, ptr %3, align 8
  %44 = getelementptr inbounds %struct.H5EA_hdr_t, ptr %43, i32 0, i32 13
  store i8 %42, ptr %44, align 8
  %45 = load ptr, ptr %3, align 8
  %46 = getelementptr inbounds %struct.H5EA_hdr_t, ptr %45, i32 0, i32 14
  %47 = load i64, ptr %46, align 8
  %48 = call noalias ptr @H5FL_seq_malloc(ptr noundef @H5_H5EA_sblk_info_t_seq_free_list, i64 noundef %47)
  %49 = load ptr, ptr %3, align 8
  %50 = getelementptr inbounds %struct.H5EA_hdr_t, ptr %49, i32 0, i32 15
  store ptr %48, ptr %50, align 8
  %51 = icmp eq ptr null, %48
  br i1 %51, label %52, label %67

52:                                               ; preds = %2
  br label %53

53:                                               ; preds = %52
  br label %54

54:                                               ; preds = %53
  br label %55

55:                                               ; preds = %54
  %56 = load i64, ptr @H5E_EARRAY_g, align 8
  %57 = load i64, ptr @H5E_CANTALLOC_g, align 8
  %58 = call i32 (ptr, ptr, i32, i64, i64, ptr, ...) @H5E_printf_stack(ptr noundef @.str, ptr noundef @__func__.H5EA__hdr_init, i32 noundef 191, i64 noundef %56, i64 noundef %57, ptr noundef @.str.3)
  br label %59

59:                                               ; preds = %55
  store i8 1, ptr %9, align 1
  %60 = load i8, ptr %9, align 1
  %61 = trunc i8 %60 to i1
  %62 = zext i1 %61 to i8
  store i8 %62, ptr %9, align 1
  br label %63

63:                                               ; preds = %59
  br label %64

64:                                               ; preds = %63
  store i32 -1, ptr %8, align 4
  br label %218

65:                                               ; No predecessors!
  br label %66

66:                                               ; preds = %65
  br label %67

67:                                               ; preds = %66, %2
  store i64 0, ptr %5, align 8
  store i64 0, ptr %6, align 8
  store i64 0, ptr %7, align 8
  br label %68

68:                                               ; preds = %144, %67
  %69 = load i64, ptr %7, align 8
  %70 = load ptr, ptr %3, align 8
  %71 = getelementptr inbounds %struct.H5EA_hdr_t, ptr %70, i32 0, i32 14
  %72 = load i64, ptr %71, align 8
  %73 = icmp ult i64 %69, %72
  br i1 %73, label %74, label %147

74:                                               ; preds = %68
  %75 = load i64, ptr %7, align 8
  %76 = udiv i64 %75, 2
  %77 = trunc i64 %76 to i32
  %78 = shl i32 1, %77
  %79 = sext i32 %78 to i64
  %80 = load ptr, ptr %3, align 8
  %81 = getelementptr inbounds %struct.H5EA_hdr_t, ptr %80, i32 0, i32 15
  %82 = load ptr, ptr %81, align 8
  %83 = load i64, ptr %7, align 8
  %84 = getelementptr inbounds %struct.H5EA_sblk_info_t, ptr %82, i64 %83
  %85 = getelementptr inbounds %struct.H5EA_sblk_info_t, ptr %84, i32 0, i32 0
  store i64 %79, ptr %85, align 8
  %86 = load i64, ptr %7, align 8
  %87 = add i64 %86, 1
  %88 = udiv i64 %87, 2
  %89 = trunc i64 %88 to i32
  %90 = shl i32 1, %89
  %91 = sext i32 %90 to i64
  %92 = load ptr, ptr %3, align 8
  %93 = getelementptr inbounds %struct.H5EA_hdr_t, ptr %92, i32 0, i32 1
  %94 = getelementptr inbounds %struct.H5EA_create_t, ptr %93, i32 0, i32 4
  %95 = load i8, ptr %94, align 1
  %96 = zext i8 %95 to i64
  %97 = mul i64 %91, %96
  %98 = load ptr, ptr %3, align 8
  %99 = getelementptr inbounds %struct.H5EA_hdr_t, ptr %98, i32 0, i32 15
  %100 = load ptr, ptr %99, align 8
  %101 = load i64, ptr %7, align 8
  %102 = getelementptr inbounds %struct.H5EA_sblk_info_t, ptr %100, i64 %101
  %103 = getelementptr inbounds %struct.H5EA_sblk_info_t, ptr %102, i32 0, i32 1
  store i64 %97, ptr %103, align 8
  %104 = load i64, ptr %5, align 8
  %105 = load ptr, ptr %3, align 8
  %106 = getelementptr inbounds %struct.H5EA_hdr_t, ptr %105, i32 0, i32 15
  %107 = load ptr, ptr %106, align 8
  %108 = load i64, ptr %7, align 8
  %109 = getelementptr inbounds %struct.H5EA_sblk_info_t, ptr %107, i64 %108
  %110 = getelementptr inbounds %struct.H5EA_sblk_info_t, ptr %109, i32 0, i32 2
  store i64 %104, ptr %110, align 8
  %111 = load i64, ptr %6, align 8
  %112 = load ptr, ptr %3, align 8
  %113 = getelementptr inbounds %struct.H5EA_hdr_t, ptr %112, i32 0, i32 15
  %114 = load ptr, ptr %113, align 8
  %115 = load i64, ptr %7, align 8
  %116 = getelementptr inbounds %struct.H5EA_sblk_info_t, ptr %114, i64 %115
  %117 = getelementptr inbounds %struct.H5EA_sblk_info_t, ptr %116, i32 0, i32 3
  store i64 %111, ptr %117, align 8
  %118 = load ptr, ptr %3, align 8
  %119 = getelementptr inbounds %struct.H5EA_hdr_t, ptr %118, i32 0, i32 15
  %120 = load ptr, ptr %119, align 8
  %121 = load i64, ptr %7, align 8
  %122 = getelementptr inbounds %struct.H5EA_sblk_info_t, ptr %120, i64 %121
  %123 = getelementptr inbounds %struct.H5EA_sblk_info_t, ptr %122, i32 0, i32 0
  %124 = load i64, ptr %123, align 8
  %125 = load ptr, ptr %3, align 8
  %126 = getelementptr inbounds %struct.H5EA_hdr_t, ptr %125, i32 0, i32 15
  %127 = load ptr, ptr %126, align 8
  %128 = load i64, ptr %7, align 8
  %129 = getelementptr inbounds %struct.H5EA_sblk_info_t, ptr %127, i64 %128
  %130 = getelementptr inbounds %struct.H5EA_sblk_info_t, ptr %129, i32 0, i32 1
  %131 = load i64, ptr %130, align 8
  %132 = mul i64 %124, %131
  %133 = load i64, ptr %5, align 8
  %134 = add i64 %133, %132
  store i64 %134, ptr %5, align 8
  %135 = load ptr, ptr %3, align 8
  %136 = getelementptr inbounds %struct.H5EA_hdr_t, ptr %135, i32 0, i32 15
  %137 = load ptr, ptr %136, align 8
  %138 = load i64, ptr %7, align 8
  %139 = getelementptr inbounds %struct.H5EA_sblk_info_t, ptr %137, i64 %138
  %140 = getelementptr inbounds %struct.H5EA_sblk_info_t, ptr %139, i32 0, i32 0
  %141 = load i64, ptr %140, align 8
  %142 = load i64, ptr %6, align 8
  %143 = add i64 %142, %141
  store i64 %143, ptr %6, align 8
  br label %144

144:                                              ; preds = %74
  %145 = load i64, ptr %7, align 8
  %146 = add i64 %145, 1
  store i64 %146, ptr %7, align 8
  br label %68

147:                                              ; preds = %68
  %148 = load ptr, ptr %3, align 8
  %149 = getelementptr inbounds %struct.H5EA_hdr_t, ptr %148, i32 0, i32 12
  %150 = load i64, ptr %149, align 8
  %151 = add i64 16, %150
  %152 = load ptr, ptr %3, align 8
  %153 = getelementptr inbounds %struct.H5EA_hdr_t, ptr %152, i32 0, i32 12
  %154 = load i64, ptr %153, align 8
  %155 = add i64 %151, %154
  %156 = load ptr, ptr %3, align 8
  %157 = getelementptr inbounds %struct.H5EA_hdr_t, ptr %156, i32 0, i32 12
  %158 = load i64, ptr %157, align 8
  %159 = add i64 %155, %158
  %160 = load ptr, ptr %3, align 8
  %161 = getelementptr inbounds %struct.H5EA_hdr_t, ptr %160, i32 0, i32 12
  %162 = load i64, ptr %161, align 8
  %163 = add i64 %159, %162
  %164 = load ptr, ptr %3, align 8
  %165 = getelementptr inbounds %struct.H5EA_hdr_t, ptr %164, i32 0, i32 12
  %166 = load i64, ptr %165, align 8
  %167 = add i64 %163, %166
  %168 = load ptr, ptr %3, align 8
  %169 = getelementptr inbounds %struct.H5EA_hdr_t, ptr %168, i32 0, i32 12
  %170 = load i64, ptr %169, align 8
  %171 = add i64 %167, %170
  %172 = load ptr, ptr %3, align 8
  %173 = getelementptr inbounds %struct.H5EA_hdr_t, ptr %172, i32 0, i32 11
  %174 = load i64, ptr %173, align 8
  %175 = add i64 %171, %174
  %176 = load ptr, ptr %3, align 8
  %177 = getelementptr inbounds %struct.H5EA_hdr_t, ptr %176, i32 0, i32 7
  store i64 %175, ptr %177, align 8
  %178 = load ptr, ptr %3, align 8
  %179 = getelementptr inbounds %struct.H5EA_hdr_t, ptr %178, i32 0, i32 3
  %180 = getelementptr inbounds %struct.H5EA_stat_t, ptr %179, i32 0, i32 0
  %181 = getelementptr inbounds %struct.anon, ptr %180, i32 0, i32 0
  store i64 %175, ptr %181, align 8
  %182 = load ptr, ptr %3, align 8
  %183 = getelementptr inbounds %struct.H5EA_hdr_t, ptr %182, i32 0, i32 1
  %184 = getelementptr inbounds %struct.H5EA_create_t, ptr %183, i32 0, i32 0
  %185 = load ptr, ptr %184, align 8
  %186 = getelementptr inbounds %struct.H5EA_class_t, ptr %185, i32 0, i32 3
  %187 = load ptr, ptr %186, align 8
  %188 = icmp ne ptr %187, null
  br i1 %188, label %189, label %217

189:                                              ; preds = %147
  %190 = load ptr, ptr %3, align 8
  %191 = getelementptr inbounds %struct.H5EA_hdr_t, ptr %190, i32 0, i32 1
  %192 = getelementptr inbounds %struct.H5EA_create_t, ptr %191, i32 0, i32 0
  %193 = load ptr, ptr %192, align 8
  %194 = getelementptr inbounds %struct.H5EA_class_t, ptr %193, i32 0, i32 3
  %195 = load ptr, ptr %194, align 8
  %196 = load ptr, ptr %4, align 8
  %197 = call ptr %195(ptr noundef %196)
  %198 = load ptr, ptr %3, align 8
  %199 = getelementptr inbounds %struct.H5EA_hdr_t, ptr %198, i32 0, i32 17
  store ptr %197, ptr %199, align 8
  %200 = icmp eq ptr null, %197
  br i1 %200, label %201, label %216

201:                                              ; preds = %189
  br label %202

202:                                              ; preds = %201
  br label %203

203:                                              ; preds = %202
  br label %204

204:                                              ; preds = %203
  %205 = load i64, ptr @H5E_EARRAY_g, align 8
  %206 = load i64, ptr @H5E_CANTCREATE_g, align 8
  %207 = call i32 (ptr, ptr, i32, i64, i64, ptr, ...) @H5E_printf_stack(ptr noundef @.str, ptr noundef @__func__.H5EA__hdr_init, i32 noundef 214, i64 noundef %205, i64 noundef %206, ptr noundef @.str.4)
  br label %208

208:                                              ; preds = %204
  store i8 1, ptr %9, align 1
  %209 = load i8, ptr %9, align 1
  %210 = trunc i8 %209 to i1
  %211 = zext i1 %210 to i8
  store i8 %211, ptr %9, align 1
  br label %212

212:                                              ; preds = %208
  br label %213

213:                                              ; preds = %212
  store i32 -1, ptr %8, align 4
  br label %218

214:                                              ; No predecessors!
  br label %215

215:                                              ; preds = %214
  br label %216

216:                                              ; preds = %215, %189
  br label %217

217:                                              ; preds = %216, %147
  br label %218

218:                                              ; preds = %217, %213, %64
  %219 = load i32, ptr %8, align 4
  ret i32 %219
}