; Function Attrs: nounwind uwtable
define range(i32 -1, 1) i32 @H5EA__hdr_init(ptr nocapture noundef %0, ptr noundef %1) local_unnamed_addr #0 {
  %3 = getelementptr inbounds i8, ptr %0, i64 248
  %4 = getelementptr inbounds i8, ptr %0, i64 257
  %5 = load i8, ptr %4, align 1
  %6 = zext i8 %5 to i32
  %7 = getelementptr inbounds i8, ptr %0, i64 259
  %8 = load i8, ptr %7, align 1
  %9 = zext i8 %8 to i64
  %10 = mul nuw nsw i64 %9, 125613361
  %11 = lshr i64 %10, 27
  %12 = and i64 %11, 31
  %13 = getelementptr inbounds [32 x i32], ptr @MultiplyDeBruijnBitPosition, i64 0, i64 %12
  %14 = load i32, ptr %13, align 4
  %15 = add nuw nsw i32 %6, 1
  %16 = sub i32 %15, %14
  %17 = zext i32 %16 to i64
  %18 = getelementptr inbounds i8, ptr %0, i64 432
  store i64 %17, ptr %18, align 8
  %19 = getelementptr inbounds i8, ptr %0, i64 261
  %20 = load i8, ptr %19, align 1
  %21 = zext nneg i8 %20 to i64
  %22 = shl nuw i64 1, %21
  %23 = getelementptr inbounds i8, ptr %0, i64 448
  store i64 %22, ptr %23, align 8
  %24 = zext i8 %5 to i16
  %25 = add nuw nsw i16 %24, 7
  %26 = lshr i16 %25, 3
  %27 = trunc nuw nsw i16 %26 to i8
  %28 = getelementptr inbounds i8, ptr %0, i64 424
  store i8 %27, ptr %28, align 8
  %29 = tail call noalias ptr @H5FL_seq_malloc(ptr noundef nonnull @H5_H5EA_sblk_info_t_seq_free_list, i64 noundef %17) #6
  %30 = getelementptr inbounds i8, ptr %0, i64 440
  store ptr %29, ptr %30, align 8
  %31 = icmp eq ptr %29, null
  br i1 %31, label %33, label %.preheader

.preheader:                                       ; preds = %2
  %32 = load i64, ptr %18, align 8
  %.not57 = icmp eq i64 %32, 0
  br i1 %.not57, label %._crit_edge, label %.lr.ph

33:                                               ; preds = %2
  %34 = load i64, ptr @H5E_EARRAY_g, align 8
  %35 = load i64, ptr @H5E_CANTALLOC_g, align 8
  %36 = tail call i32 (ptr, ptr, i32, i64, i64, ptr, ...) @H5E_printf_stack(ptr noundef nonnull @.str, ptr noundef nonnull @__func__.H5EA__hdr_init, i32 noundef 191, i64 noundef %34, i64 noundef %35, ptr noundef nonnull @.str.3) #6
  br label %86

.lr.ph:                                           ; preds = %.preheader, %.lr.ph
  %37 = phi ptr [ %57, %.lr.ph ], [ %29, %.preheader ]
  %.04856 = phi i64 [ %43, %.lr.ph ], [ 0, %.preheader ]
  %.04955 = phi i64 [ %64, %.lr.ph ], [ 0, %.preheader ]
  %.05054 = phi i64 [ %63, %.lr.ph ], [ 0, %.preheader ]
  %38 = lshr i64 %.04856, 1
  %39 = trunc i64 %38 to i32
  %40 = shl nuw i32 1, %39
  %41 = sext i32 %40 to i64
  %42 = getelementptr inbounds %struct.H5EA_sblk_info_t, ptr %37, i64 %.04856
  store i64 %41, ptr %42, align 8
  %43 = add nuw i64 %.04856, 1
  %44 = lshr i64 %43, 1
  %45 = trunc i64 %44 to i32
  %46 = shl nuw i32 1, %45
  %47 = sext i32 %46 to i64
  %48 = load i8, ptr %7, align 1
  %49 = zext i8 %48 to i64
  %50 = mul nsw i64 %49, %47
  %51 = load ptr, ptr %30, align 8
  %52 = getelementptr inbounds %struct.H5EA_sblk_info_t, ptr %51, i64 %.04856, i32 1
  store i64 %50, ptr %52, align 8
  %53 = load ptr, ptr %30, align 8
  %54 = getelementptr inbounds %struct.H5EA_sblk_info_t, ptr %53, i64 %.04856, i32 2
  store i64 %.05054, ptr %54, align 8
  %55 = load ptr, ptr %30, align 8
  %56 = getelementptr inbounds %struct.H5EA_sblk_info_t, ptr %55, i64 %.04856, i32 3
  store i64 %.04955, ptr %56, align 8
  %57 = load ptr, ptr %30, align 8
  %58 = getelementptr inbounds %struct.H5EA_sblk_info_t, ptr %57, i64 %.04856
  %59 = load i64, ptr %58, align 8
  %60 = getelementptr inbounds i8, ptr %58, i64 8
  %61 = load i64, ptr %60, align 8
  %62 = mul i64 %61, %59
  %63 = add i64 %62, %.05054
  %64 = add i64 %59, %.04955
  %65 = load i64, ptr %18, align 8
  %66 = icmp ult i64 %43, %65
  br i1 %66, label %.lr.ph, label %._crit_edge

._crit_edge:                                      ; preds = %.lr.ph, %.preheader
  %67 = getelementptr inbounds i8, ptr %0, i64 416
  %68 = load i64, ptr %67, align 8
  %69 = getelementptr inbounds i8, ptr %0, i64 408
  %70 = load i64, ptr %69, align 8
  %reass.mul = mul i64 %68, 6
  %71 = add i64 %70, 16
  %72 = add i64 %71, %reass.mul
  %73 = getelementptr inbounds i8, ptr %0, i64 376
  store i64 %72, ptr %73, align 8
  %74 = getelementptr inbounds i8, ptr %0, i64 272
  store i64 %72, ptr %74, align 8
  %75 = load ptr, ptr %3, align 8
  %76 = getelementptr inbounds i8, ptr %75, i64 24
  %77 = load ptr, ptr %76, align 8
  %.not = icmp eq ptr %77, null
  br i1 %.not, label %86, label %78

78:                                               ; preds = %._crit_edge
  %79 = tail call ptr %77(ptr noundef %1) #6
  %80 = getelementptr inbounds i8, ptr %0, i64 456
  store ptr %79, ptr %80, align 8
  %81 = icmp eq ptr %79, null
  br i1 %81, label %82, label %86

82:                                               ; preds = %78
  %83 = load i64, ptr @H5E_EARRAY_g, align 8
  %84 = load i64, ptr @H5E_CANTCREATE_g, align 8
  %85 = tail call i32 (ptr, ptr, i32, i64, i64, ptr, ...) @H5E_printf_stack(ptr noundef nonnull @.str, ptr noundef nonnull @__func__.H5EA__hdr_init, i32 noundef 214, i64 noundef %83, i64 noundef %84, ptr noundef nonnull @.str.4) #6
  br label %86

86:                                               ; preds = %._crit_edge, %78, %82, %33
  %.0 = phi i32 [ -1, %33 ], [ -1, %82 ], [ 0, %78 ], [ 0, %._crit_edge ]
  ret i32 %.0
}